; Function Attrs: mustprogress uwtable
define noundef zeroext i1 @_ZN6google8protobuf8internal12FieldSkipper11SkipMessageEPNS0_2io16CodedInputStreamE(ptr nocapture nonnull readnone align 8 %0, ptr noundef %1) unnamed_addr #3 align 2 {
  %3 = getelementptr inbounds i8, ptr %1, i64 8
  %4 = getelementptr inbounds i8, ptr %1, i64 32
  br label %5

5:                                                ; preds = %21, %2
  %6 = load ptr, ptr %1, align 8
  %7 = load ptr, ptr %3, align 8
  %8 = icmp ult ptr %6, %7
  br i1 %8, label %9, label %15

9:                                                ; preds = %5
  %10 = load i8, ptr %6, align 1
  %11 = zext i8 %10 to i32
  %12 = icmp sgt i8 %10, -1
  br i1 %12, label %13, label %15

13:                                               ; preds = %9
  %14 = getelementptr inbounds i8, ptr %6, i64 1
  store ptr %14, ptr %1, align 8
  br label %17

15:                                               ; preds = %9, %5
  %.013.i = phi i32 [ %11, %9 ], [ 0, %5 ]
  %16 = tail call noundef i32 @_ZN6google8protobuf2io16CodedInputStream15ReadTagFallbackEj(ptr noundef nonnull align 8 dereferenceable(80) %1, i32 noundef %.013.i)
  br label %17

17:                                               ; preds = %15, %13
  %.0.i = phi i32 [ %11, %13 ], [ %16, %15 ]
  store i32 %.0.i, ptr %4, align 8
  %18 = icmp eq i32 %.0.i, 0
  %19 = and i32 %.0.i, 7
  %20 = icmp eq i32 %19, 4
  %or.cond.i = or i1 %18, %20
  br i1 %or.cond.i, label %_ZN6google8protobuf8internal14WireFormatLite11SkipMessageEPNS0_2io16CodedInputStreamE.exit, label %21

21:                                               ; preds = %17
  %22 = tail call noundef zeroext i1 @_ZN6google8protobuf8internal14WireFormatLite9SkipFieldEPNS0_2io16CodedInputStreamEj(ptr noundef nonnull %1, i32 noundef %.0.i)
  br i1 %22, label %5, label %_ZN6google8protobuf8internal14WireFormatLite11SkipMessageEPNS0_2io16CodedInputStreamE.exit, !llvm.loop !4

_ZN6google8protobuf8internal14WireFormatLite11SkipMessageEPNS0_2io16CodedInputStreamE.exit: ; preds = %17, %21
  ret i1 %or.cond.i
}